; Function Attrs: null_pointer_is_valid sspstrong uwtable
define hidden void @proto_register_mmse() local_unnamed_addr #0 {
  %1 = tail call i32 @proto_register_protocol(ptr noundef nonnull @.str.124, ptr noundef nonnull @.str.125, ptr noundef nonnull @.str.126)
  store i32 %1, ptr @proto_mmse, align 4
  tail call void @proto_register_field_array(i32 noundef %1, ptr noundef nonnull @proto_register_mmse.hf, i32 noundef 45)
  tail call void @proto_register_subtree_array(ptr noundef nonnull @proto_register_mmse.ett, i32 noundef 2)
  %2 = load i32, ptr @proto_mmse, align 4
  %3 = tail call ptr @expert_register_protocol(i32 noundef %2)
  tail call void @expert_register_field_array(ptr noundef %3, ptr noundef nonnull @proto_register_mmse.ei, i32 noundef 1)
  %4 = load i32, ptr @proto_mmse, align 4
  %5 = tail call ptr @register_dissector(ptr noundef nonnull @.str.126, ptr noundef nonnull @dissect_mmse_standalone, i32 noundef %4)
  store ptr %5, ptr @mmse_standalone_handle, align 8
  %6 = load i32, ptr @proto_mmse, align 4
  %7 = tail call ptr @register_dissector(ptr noundef nonnull @.str.127, ptr noundef nonnull @dissect_mmse_encapsulated, i32 noundef %6)
  store ptr %7, ptr @mmse_encapsulated_handle, align 8
  ret void
}